target datalayout = "e-m:e-p270:32:32-p271:32:32-p272:64:64-i64:64-i128:128-f80:128-n8:16:32:64-S128"
target triple = "x86_64-pc-linux-gnu"

%struct.evp_pkey_ctx_st = type { i32, ptr, ptr, ptr, ptr, %union.anon, %struct.anon.4, ptr, ptr, ptr, i32, i32, ptr, ptr, ptr, ptr, ptr, i8, ptr }
%union.anon = type { %struct.anon.0 }
%struct.anon.0 = type { ptr, ptr }
%struct.anon.4 = type { ptr, ptr, i64, i8 }
%struct.CRYPTO_REF_COUNT = type { i32 }
%struct.anon.2 = type { ptr, ptr }
%struct.evp_asym_cipher_st = type { i32, ptr, ptr, ptr, %struct.CRYPTO_REF_COUNT, ptr, ptr, ptr, ptr, ptr, ptr, ptr, ptr, ptr, ptr, ptr }
%struct.evp_pkey_method_st = type { i32, i32, ptr, ptr, ptr, ptr, ptr, ptr, ptr, ptr, ptr, ptr, ptr, ptr, ptr, ptr, ptr, ptr, ptr, ptr, ptr, ptr, ptr, ptr, ptr, ptr, ptr, ptr, ptr, ptr, ptr, ptr, ptr }

@.str = private unnamed_addr constant [35 x i8] c"../openssl/crypto/evp/asymcipher.c\00", align 1
@__func__.EVP_PKEY_encrypt = private unnamed_addr constant [17 x i8] c"EVP_PKEY_encrypt\00", align 1

; Function Attrs: nounwind uwtable
define i32 @EVP_PKEY_encrypt(ptr noundef %0, ptr noundef %1, ptr noundef %2, ptr noundef %3, i64 noundef %4) #0 {
  %6 = alloca i32, align 4
  %7 = alloca ptr, align 8
  %8 = alloca ptr, align 8
  %9 = alloca ptr, align 8
  %10 = alloca ptr, align 8
  %11 = alloca i64, align 8
  %12 = alloca i32, align 4
  %13 = alloca i32, align 4
  %14 = alloca i64, align 8
  store ptr %0, ptr %7, align 8, !tbaa !3
  store ptr %1, ptr %8, align 8, !tbaa !19
  store ptr %2, ptr %9, align 8, !tbaa !57
  store ptr %3, ptr %10, align 8, !tbaa !19
  store i64 %4, ptr %11, align 8, !tbaa !59
  call void @llvm.lifetime.start.p0(i64 4, ptr %12) #5
  %15 = load ptr, ptr %7, align 8, !tbaa !3
  %16 = icmp eq ptr %15, null
  br i1 %16, label %17, label %18

17:                                               ; preds = %5
  call void @ERR_new()
  call void @ERR_set_debug(ptr noundef @.str, i32 noundef 244, ptr noundef @__func__.EVP_PKEY_encrypt)
  call void (i32, i32, ptr, ...) @ERR_set_error(i32 noundef 6, i32 noundef 150, ptr noundef null)
  store i32 -2, ptr %6, align 4
  store i32 1, ptr %13, align 4
  br label %114

18:                                               ; preds = %5
  %19 = load ptr, ptr %7, align 8, !tbaa !3
  %20 = getelementptr inbounds nuw %struct.evp_pkey_ctx_st, ptr %19, i32 0, i32 0
  %21 = load i32, ptr %20, align 8, !tbaa !21
  %22 = icmp ne i32 %21, 512
  br i1 %22, label %23, label %24

23:                                               ; preds = %18
  call void @ERR_new()
  call void @ERR_set_debug(ptr noundef @.str, i32 noundef 249, ptr noundef @__func__.EVP_PKEY_encrypt)
  call void (i32, i32, ptr, ...) @ERR_set_error(i32 noundef 6, i32 noundef 151, ptr noundef null)
  store i32 -1, ptr %6, align 4
  store i32 1, ptr %13, align 4
  br label %114

24:                                               ; preds = %18
  %25 = load ptr, ptr %7, align 8, !tbaa !3
  %26 = getelementptr inbounds nuw %struct.evp_pkey_ctx_st, ptr %25, i32 0, i32 5
  %27 = getelementptr inbounds nuw %struct.anon.2, ptr %26, i32 0, i32 1
  %28 = load ptr, ptr %27, align 8, !tbaa !46
  %29 = icmp eq ptr %28, null
  br i1 %29, label %30, label %31

30:                                               ; preds = %24
  br label %56

31:                                               ; preds = %24
  %32 = load ptr, ptr %7, align 8, !tbaa !3
  %33 = getelementptr inbounds nuw %struct.evp_pkey_ctx_st, ptr %32, i32 0, i32 5
  %34 = getelementptr inbounds nuw %struct.anon.2, ptr %33, i32 0, i32 0
  %35 = load ptr, ptr %34, align 8, !tbaa !46
  %36 = getelementptr inbounds nuw %struct.evp_asym_cipher_st, ptr %35, i32 0, i32 7
  %37 = load ptr, ptr %36, align 8, !tbaa !60
  %38 = load ptr, ptr %7, align 8, !tbaa !3
  %39 = getelementptr inbounds nuw %struct.evp_pkey_ctx_st, ptr %38, i32 0, i32 5
  %40 = getelementptr inbounds nuw %struct.anon.2, ptr %39, i32 0, i32 1
  %41 = load ptr, ptr %40, align 8, !tbaa !46
  %42 = load ptr, ptr %8, align 8, !tbaa !19
  %43 = load ptr, ptr %9, align 8, !tbaa !57
  %44 = load ptr, ptr %8, align 8, !tbaa !19
  %45 = icmp eq ptr %44, null
  br i1 %45, label %46, label %47

46:                                               ; preds = %31
  br label %50

47:                                               ; preds = %31
  %48 = load ptr, ptr %9, align 8, !tbaa !57
  %49 = load i64, ptr %48, align 8, !tbaa !59
  br label %50

50:                                               ; preds = %47, %46
  %51 = phi i64 [ 0, %46 ], [ %49, %47 ]
  %52 = load ptr, ptr %10, align 8, !tbaa !19
  %53 = load i64, ptr %11, align 8, !tbaa !59
  %54 = call i32 %37(ptr noundef %41, ptr noundef %42, ptr noundef %43, i64 noundef %51, ptr noundef %52, i64 noundef %53)
  store i32 %54, ptr %12, align 4, !tbaa !8
  %55 = load i32, ptr %12, align 4, !tbaa !8
  store i32 %55, ptr %6, align 4
  store i32 1, ptr %13, align 4
  br label %114

56:                                               ; preds = %30
  %57 = load ptr, ptr %7, align 8, !tbaa !3
  %58 = getelementptr inbounds nuw %struct.evp_pkey_ctx_st, ptr %57, i32 0, i32 12
  %59 = load ptr, ptr %58, align 8, !tbaa !52
  %60 = icmp eq ptr %59, null
  br i1 %60, label %68, label %61

61:                                               ; preds = %56
  %62 = load ptr, ptr %7, align 8, !tbaa !3
  %63 = getelementptr inbounds nuw %struct.evp_pkey_ctx_st, ptr %62, i32 0, i32 12
  %64 = load ptr, ptr %63, align 8, !tbaa !52
  %65 = getelementptr inbounds nuw %struct.evp_pkey_method_st, ptr %64, i32 0, i32 20
  %66 = load ptr, ptr %65, align 8, !tbaa !53
  %67 = icmp eq ptr %66, null
  br i1 %67, label %68, label %69

68:                                               ; preds = %61, %56
  call void @ERR_new()
  call void @ERR_set_debug(ptr noundef @.str, i32 noundef 262, ptr noundef @__func__.EVP_PKEY_encrypt)
  call void (i32, i32, ptr, ...) @ERR_set_error(i32 noundef 6, i32 noundef 150, ptr noundef null)
  store i32 -2, ptr %6, align 4
  store i32 1, ptr %13, align 4
  br label %114

69:                                               ; preds = %61
  %70 = load ptr, ptr %7, align 8, !tbaa !3
  %71 = getelementptr inbounds nuw %struct.evp_pkey_ctx_st, ptr %70, i32 0, i32 12
  %72 = load ptr, ptr %71, align 8, !tbaa !52
  %73 = getelementptr inbounds nuw %struct.evp_pkey_method_st, ptr %72, i32 0, i32 1
  %74 = load i32, ptr %73, align 4, !tbaa !61
  %75 = and i32 %74, 2
  %76 = icmp ne i32 %75, 0
  br i1 %76, label %77, label %102

77:                                               ; preds = %69
  call void @llvm.lifetime.start.p0(i64 8, ptr %14) #5
  %78 = load ptr, ptr %7, align 8, !tbaa !3
  %79 = getelementptr inbounds nuw %struct.evp_pkey_ctx_st, ptr %78, i32 0, i32 14
  %80 = load ptr, ptr %79, align 8, !tbaa !32
  %81 = call i32 @EVP_PKEY_get_size(ptr noundef %80)
  %82 = sext i32 %81 to i64
  store i64 %82, ptr %14, align 8, !tbaa !59
  %83 = load i64, ptr %14, align 8, !tbaa !59
  %84 = icmp eq i64 %83, 0
  br i1 %84, label %85, label %86

85:                                               ; preds = %77
  call void @ERR_new()
  call void @ERR_set_debug(ptr noundef @.str, i32 noundef 265, ptr noundef @__func__.EVP_PKEY_encrypt)
  call void (i32, i32, ptr, ...) @ERR_set_error(i32 noundef 6, i32 noundef 163, ptr noundef null)
  store i32 0, ptr %6, align 4
  store i32 1, ptr %13, align 4
  br label %99

86:                                               ; preds = %77
  %87 = load ptr, ptr %8, align 8, !tbaa !19
  %88 = icmp eq ptr %87, null
  br i1 %88, label %89, label %92

89:                                               ; preds = %86
  %90 = load i64, ptr %14, align 8, !tbaa !59
  %91 = load ptr, ptr %9, align 8, !tbaa !57
  store i64 %90, ptr %91, align 8, !tbaa !59
  store i32 1, ptr %6, align 4
  store i32 1, ptr %13, align 4
  br label %99

92:                                               ; preds = %86
  %93 = load ptr, ptr %9, align 8, !tbaa !57
  %94 = load i64, ptr %93, align 8, !tbaa !59
  %95 = load i64, ptr %14, align 8, !tbaa !59
  %96 = icmp ult i64 %94, %95
  br i1 %96, label %97, label %98

97:                                               ; preds = %92
  call void @ERR_new()
  call void @ERR_set_debug(ptr noundef @.str, i32 noundef 265, ptr noundef @__func__.EVP_PKEY_encrypt)
  call void (i32, i32, ptr, ...) @ERR_set_error(i32 noundef 6, i32 noundef 155, ptr noundef null)
  store i32 0, ptr %6, align 4
  store i32 1, ptr %13, align 4
  br label %99

98:                                               ; preds = %92
  store i32 0, ptr %13, align 4
  br label %99

99:                                               ; preds = %98, %97, %89, %85
  call void @llvm.lifetime.end.p0(i64 8, ptr %14) #5
  %100 = load i32, ptr %13, align 4
  switch i32 %100, label %114 [
    i32 0, label %101
  ]

101:                                              ; preds = %99
  br label %102

102:                                              ; preds = %101, %69
  %103 = load ptr, ptr %7, align 8, !tbaa !3
  %104 = getelementptr inbounds nuw %struct.evp_pkey_ctx_st, ptr %103, i32 0, i32 12
  %105 = load ptr, ptr %104, align 8, !tbaa !52
  %106 = getelementptr inbounds nuw %struct.evp_pkey_method_st, ptr %105, i32 0, i32 20
  %107 = load ptr, ptr %106, align 8, !tbaa !53
  %108 = load ptr, ptr %7, align 8, !tbaa !3
  %109 = load ptr, ptr %8, align 8, !tbaa !19
  %110 = load ptr, ptr %9, align 8, !tbaa !57
  %111 = load ptr, ptr %10, align 8, !tbaa !19
  %112 = load i64, ptr %11, align 8, !tbaa !59
  %113 = call i32 %107(ptr noundef %108, ptr noundef %109, ptr noundef %110, ptr noundef %111, i64 noundef %112)
  store i32 %113, ptr %6, align 4
  store i32 1, ptr %13, align 4
  br label %114

114:                                              ; preds = %102, %99, %68, %50, %23, %17
  call void @llvm.lifetime.end.p0(i64 4, ptr %12) #5
  %115 = load i32, ptr %6, align 4
  ret i32 %115
}