; Function Attrs: nounwind uwtable
define i32 @EVP_PKEY_encrypt(ptr noundef %0, ptr noundef %1, ptr noundef %2, ptr noundef %3, i64 noundef %4) local_unnamed_addr #0 {
  %6 = icmp eq ptr %0, null
  br i1 %6, label %7, label %8

7:                                                ; preds = %5
  tail call void @ERR_new() #5
  tail call void @ERR_set_debug(ptr noundef nonnull @.str, i32 noundef 244, ptr noundef nonnull @__func__.EVP_PKEY_encrypt) #5
  tail call void (i32, i32, ptr, ...) @ERR_set_error(i32 noundef 6, i32 noundef 150, ptr noundef null) #5
  br label %.thread

8:                                                ; preds = %5
  %9 = load i32, ptr %0, align 8, !tbaa !8
  %.not = icmp eq i32 %9, 512
  br i1 %.not, label %11, label %10

10:                                               ; preds = %8
  tail call void @ERR_new() #5
  tail call void @ERR_set_debug(ptr noundef nonnull @.str, i32 noundef 249, ptr noundef nonnull @__func__.EVP_PKEY_encrypt) #5
  tail call void (i32, i32, ptr, ...) @ERR_set_error(i32 noundef 6, i32 noundef 151, ptr noundef null) #5
  br label %.thread

11:                                               ; preds = %8
  %12 = getelementptr inbounds nuw i8, ptr %0, i64 48
  %13 = load ptr, ptr %12, align 8, !tbaa !40
  %14 = icmp eq ptr %13, null
  br i1 %14, label %26, label %15

15:                                               ; preds = %11
  %16 = getelementptr inbounds nuw i8, ptr %0, i64 40
  %17 = load ptr, ptr %16, align 8, !tbaa !40
  %18 = getelementptr inbounds nuw i8, ptr %17, i64 56
  %19 = load ptr, ptr %18, align 8, !tbaa !49
  %20 = icmp eq ptr %1, null
  br i1 %20, label %23, label %21

21:                                               ; preds = %15
  %22 = load i64, ptr %2, align 8, !tbaa !50
  br label %23

23:                                               ; preds = %15, %21
  %24 = phi i64 [ %22, %21 ], [ 0, %15 ]
  %25 = tail call i32 %19(ptr noundef nonnull %13, ptr noundef %1, ptr noundef %2, i64 noundef %24, ptr noundef %3, i64 noundef %4) #5
  br label %.thread

26:                                               ; preds = %11
  %27 = getelementptr inbounds nuw i8, ptr %0, i64 120
  %28 = load ptr, ptr %27, align 8, !tbaa !44
  %29 = icmp eq ptr %28, null
  br i1 %29, label %34, label %30

30:                                               ; preds = %26
  %31 = getelementptr inbounds nuw i8, ptr %28, i64 152
  %32 = load ptr, ptr %31, align 8, !tbaa !45
  %33 = icmp eq ptr %32, null
  br i1 %33, label %34, label %35

34:                                               ; preds = %30, %26
  tail call void @ERR_new() #5
  tail call void @ERR_set_debug(ptr noundef nonnull @.str, i32 noundef 262, ptr noundef nonnull @__func__.EVP_PKEY_encrypt) #5
  tail call void (i32, i32, ptr, ...) @ERR_set_error(i32 noundef 6, i32 noundef 150, ptr noundef null) #5
  br label %.thread

35:                                               ; preds = %30
  %36 = getelementptr inbounds nuw i8, ptr %28, i64 4
  %37 = load i32, ptr %36, align 4, !tbaa !51
  %38 = and i32 %37, 2
  %.not34 = icmp eq i32 %38, 0
  br i1 %.not34, label %53, label %39

39:                                               ; preds = %35
  %40 = getelementptr inbounds nuw i8, ptr %0, i64 136
  %41 = load ptr, ptr %40, align 8, !tbaa !21
  %42 = tail call i32 @EVP_PKEY_get_size(ptr noundef %41) #5
  %43 = sext i32 %42 to i64
  %44 = icmp eq i32 %42, 0
  br i1 %44, label %45, label %46

45:                                               ; preds = %39
  tail call void @ERR_new() #5
  tail call void @ERR_set_debug(ptr noundef nonnull @.str, i32 noundef 265, ptr noundef nonnull @__func__.EVP_PKEY_encrypt) #5
  tail call void (i32, i32, ptr, ...) @ERR_set_error(i32 noundef 6, i32 noundef 163, ptr noundef null) #5
  br label %.thread

46:                                               ; preds = %39
  %47 = icmp eq ptr %1, null
  br i1 %47, label %48, label %49

48:                                               ; preds = %46
  store i64 %43, ptr %2, align 8, !tbaa !50
  br label %.thread

49:                                               ; preds = %46
  %50 = load i64, ptr %2, align 8, !tbaa !50
  %51 = icmp ult i64 %50, %43
  br i1 %51, label %52, label %._crit_edge

._crit_edge:                                      ; preds = %49
  %.pre = load ptr, ptr %27, align 8, !tbaa !44
  %.phi.trans.insert = getelementptr inbounds nuw i8, ptr %.pre, i64 152
  %.pre37 = load ptr, ptr %.phi.trans.insert, align 8, !tbaa !45
  br label %53

52:                                               ; preds = %49
  tail call void @ERR_new() #5
  tail call void @ERR_set_debug(ptr noundef nonnull @.str, i32 noundef 265, ptr noundef nonnull @__func__.EVP_PKEY_encrypt) #5
  tail call void (i32, i32, ptr, ...) @ERR_set_error(i32 noundef 6, i32 noundef 155, ptr noundef null) #5
  br label %.thread

53:                                               ; preds = %._crit_edge, %35
  %54 = phi ptr [ %.pre37, %._crit_edge ], [ %32, %35 ]
  %55 = tail call i32 %54(ptr noundef nonnull %0, ptr noundef %1, ptr noundef %2, ptr noundef %3, i64 noundef %4) #5
  br label %.thread

.thread:                                          ; preds = %52, %48, %45, %53, %34, %23, %10, %7
  %.0 = phi i32 [ -2, %7 ], [ -1, %10 ], [ -2, %34 ], [ %55, %53 ], [ %25, %23 ], [ 0, %52 ], [ 1, %48 ], [ 0, %45 ]
  ret i32 %.0
}